target datalayout = "e-m:e-p270:32:32-p271:32:32-p272:64:64-i64:64-i128:128-f80:128-n8:16:32:64-S128"
target triple = "x86_64-pc-linux-gnu"

%class.Register = type { i32 }
%class.XMMRegister = type { i32 }
%class.KRegister = type { i32 }
%"class.XMMRegister::XMMRegisterImpl" = type { i8 }
%class.RelocationHolder = type { [40 x i8] }
%class.AddressLiteral = type { %class.RelocationHolder, i8, ptr }
%class.ExternalAddress = type { %class.AddressLiteral }

@.str = private unnamed_addr constant [46 x i8] c"src/hotspot/cpu/x86/c2_MacroAssembler_x86.cpp\00", align 1
@_ZL5noreg = internal constant %class.Register { i32 -1 }, align 4
@_ZL2k0 = internal constant %class.KRegister zeroinitializer, align 4
@g_assert_poison = external global ptr, align 8
@.str.4 = private unnamed_addr constant [20 x i8] c"Unsupported type %s\00", align 1
@_ZN19Abstract_VM_Version9_featuresE = external global i64, align 8
@all_XMMRegisterImpls = external hidden global [33 x %"class.XMMRegister::XMMRegisterImpl"], align 16
@_ZN12StubRoutines3x8635_vector_reverse_byte_perm_mask_longE = external global ptr, align 8
@_ZN12StubRoutines3x8634_vector_reverse_byte_perm_mask_intE = external global ptr, align 8
@_ZN12StubRoutines3x8636_vector_reverse_byte_perm_mask_shortE = external global ptr, align 8

; Function Attrs: mustprogress nounwind uwtable
define linkonce_odr hidden noundef i32 @_Z12checked_castIilET_T0_(i64 noundef %0) #1 comdat {
  %2 = alloca i64, align 8
  %3 = alloca i32, align 4
  store i64 %0, ptr %2, align 8
  %4 = load i64, ptr %2, align 8
  %5 = trunc i64 %4 to i32
  store i32 %5, ptr %3, align 4
  %6 = load i32, ptr %3, align 4
  ret i32 %6
}

; Function Attrs: mustprogress nounwind uwtable
define linkonce_odr hidden noundef ptr @_ZNK16RelocationHolder5relocEv(ptr noundef nonnull align 8 dereferenceable(40) %0) #1 comdat align 2 {
  %2 = alloca ptr, align 8
  store ptr %0, ptr %2, align 8
  %3 = load ptr, ptr %2, align 8
  %4 = getelementptr inbounds %class.RelocationHolder, ptr %3, i32 0, i32 0
  %5 = getelementptr inbounds [40 x i8], ptr %4, i64 0, i64 0
  ret ptr %5
}

; Function Attrs: mustprogress nounwind uwtable
define linkonce_odr hidden noundef zeroext i1 @_ZN24external_word_Relocation16can_be_relocatedEPh(ptr noundef %0) #1 comdat align 2 {
  %2 = alloca ptr, align 8
  store ptr %0, ptr %2, align 8
  %3 = load ptr, ptr %2, align 8
  %4 = icmp ne ptr %3, null
  ret i1 %4
}

; Function Attrs: mustprogress nounwind uwtable
define linkonce_odr hidden noundef i32 @_ZNK11XMMRegister15XMMRegisterImpl12raw_encodingEv(ptr noundef nonnull align 1 dereferenceable(1) %0) #1 comdat align 2 {
  %2 = alloca ptr, align 8
  store ptr %0, ptr %2, align 8
  %3 = load ptr, ptr %2, align 8
  %4 = call noundef ptr @_ZN11XMMRegister15XMMRegisterImpl5firstEv()
  %5 = ptrtoint ptr %3 to i64
  %6 = ptrtoint ptr %4 to i64
  %7 = sub i64 %5, %6
  %8 = call noundef i32 @_Z12checked_castIilET_T0_(i64 noundef %7)
  ret i32 %8
}

; Function Attrs: mustprogress nounwind uwtable
define linkonce_odr hidden noundef ptr @_ZN11XMMRegister15XMMRegisterImpl5firstEv() #1 comdat align 2 {
  ret ptr getelementptr inbounds (%"class.XMMRegister::XMMRegisterImpl", ptr @all_XMMRegisterImpls, i64 1)
}

; Function Attrs: mustprogress nounwind uwtable
define linkonce_odr hidden void @_ZN16RelocationHolderC2ERKS_(ptr noundef nonnull align 8 dereferenceable(40) %0, ptr noundef nonnull align 8 dereferenceable(40) %1) unnamed_addr #1 comdat align 2 {
  %3 = alloca ptr, align 8
  %4 = alloca ptr, align 8
  store ptr %0, ptr %3, align 8
  store ptr %1, ptr %4, align 8
  %5 = load ptr, ptr %3, align 8
  %6 = load ptr, ptr %4, align 8
  %7 = call noundef ptr @_ZNK16RelocationHolder5relocEv(ptr noundef nonnull align 8 dereferenceable(40) %6)
  %8 = load ptr, ptr %7, align 8
  %9 = getelementptr inbounds ptr, ptr %8, i64 2
  %10 = load ptr, ptr %9, align 8
  call void %10(ptr noundef nonnull align 8 dereferenceable(20) %7, ptr noundef nonnull align 8 dereferenceable(40) %5)
  ret void
}

; Function Attrs: mustprogress nounwind uwtable
define linkonce_odr hidden noundef i32 @_ZN15ExternalAddress16reloc_for_targetEPh(ptr noundef %0) #1 comdat align 2 {
  %2 = alloca ptr, align 8
  store ptr %0, ptr %2, align 8
  %3 = load ptr, ptr %2, align 8
  %4 = call noundef zeroext i1 @_ZN24external_word_Relocation16can_be_relocatedEPh(ptr noundef %3)
  %5 = select i1 %4, i32 7, i32 0
  ret i32 %5
}

; Function Attrs: mustprogress nounwind uwtable
define linkonce_odr hidden noundef i32 @_ZNK9KRegisterneES_(ptr noundef nonnull align 4 dereferenceable(4) %0, i32 %1) #1 comdat align 2 {
  %3 = alloca %class.KRegister, align 4
  %4 = alloca ptr, align 8
  %5 = getelementptr inbounds %class.KRegister, ptr %3, i32 0, i32 0
  store i32 %1, ptr %5, align 4
  store ptr %0, ptr %4, align 8
  %6 = load ptr, ptr %4, align 8
  %7 = getelementptr inbounds %class.KRegister, ptr %6, i32 0, i32 0
  %8 = load i32, ptr %7, align 4
  %9 = getelementptr inbounds %class.KRegister, ptr %3, i32 0, i32 0
  %10 = load i32, ptr %9, align 4
  %11 = icmp ne i32 %8, %10
  %12 = zext i1 %11 to i32
  ret i32 %12
}

; Function Attrs: mustprogress nounwind uwtable
define linkonce_odr hidden noundef i32 @_ZNK11XMMRegister15XMMRegisterImpl8encodingEv(ptr noundef nonnull align 1 dereferenceable(1) %0) #1 comdat align 2 {
  %2 = alloca ptr, align 8
  store ptr %0, ptr %2, align 8
  %3 = load ptr, ptr %2, align 8
  %4 = call noundef i32 @_ZNK11XMMRegister15XMMRegisterImpl12raw_encodingEv(ptr noundef nonnull align 1 dereferenceable(1) %3)
  ret i32 %4
}

; Function Attrs: mustprogress nounwind uwtable
define linkonce_odr hidden noundef ptr @_ZNK11XMMRegisterptEv(ptr noundef nonnull align 4 dereferenceable(4) %0) #1 comdat align 2 {
  %2 = alloca ptr, align 8
  store ptr %0, ptr %2, align 8
  %3 = load ptr, ptr %2, align 8
  %4 = call noundef ptr @_ZN11XMMRegister15XMMRegisterImpl5firstEv()
  %5 = getelementptr inbounds %class.XMMRegister, ptr %3, i32 0, i32 0
  %6 = load i32, ptr %5, align 4
  %7 = sext i32 %6 to i64
  %8 = getelementptr inbounds %"class.XMMRegister::XMMRegisterImpl", ptr %4, i64 %7
  ret ptr %8
}

; Function Attrs: mustprogress nounwind uwtable
define linkonce_odr hidden noundef ptr @_ZN12StubRoutines3x8635vector_reverse_byte_perm_mask_shortEv() #1 comdat align 2 {
  %1 = load ptr, ptr @_ZN12StubRoutines3x8636_vector_reverse_byte_perm_mask_shortE, align 8
  ret ptr %1
}

; Function Attrs: mustprogress nounwind uwtable
define linkonce_odr hidden noundef ptr @_ZN12StubRoutines3x8633vector_reverse_byte_perm_mask_intEv() #1 comdat align 2 {
  %1 = load ptr, ptr @_ZN12StubRoutines3x8634_vector_reverse_byte_perm_mask_intE, align 8
  ret ptr %1
}

; Function Attrs: mustprogress nounwind uwtable
define linkonce_odr hidden void @_ZN14AddressLiteralC2EOS_(ptr noundef nonnull align 8 dereferenceable(56) %0, ptr noundef nonnull align 8 dereferenceable(56) %1) unnamed_addr #1 comdat align 2 {
  %3 = alloca ptr, align 8
  %4 = alloca ptr, align 8
  store ptr %0, ptr %3, align 8
  store ptr %1, ptr %4, align 8
  %5 = load ptr, ptr %3, align 8
  %6 = getelementptr inbounds %class.AddressLiteral, ptr %5, i32 0, i32 0
  %7 = load ptr, ptr %4, align 8
  %8 = getelementptr inbounds %class.AddressLiteral, ptr %7, i32 0, i32 0
  call void @_ZN16RelocationHolderC2ERKS_(ptr noundef nonnull align 8 dereferenceable(40) %6, ptr noundef nonnull align 8 dereferenceable(40) %8)
  %9 = getelementptr inbounds %class.AddressLiteral, ptr %5, i32 0, i32 1
  %10 = load ptr, ptr %4, align 8
  %11 = getelementptr inbounds %class.AddressLiteral, ptr %10, i32 0, i32 1
  call void @llvm.memcpy.p0.p0.i64(ptr align 8 %9, ptr align 8 %11, i64 16, i1 false)
  ret void
}

; Function Attrs: mustprogress nounwind uwtable
define linkonce_odr hidden void @_ZN15ExternalAddressC2EPh(ptr noundef nonnull align 8 dereferenceable(56) %0, ptr noundef %1) unnamed_addr #1 comdat align 2 {
  %3 = alloca ptr, align 8
  %4 = alloca ptr, align 8
  store ptr %0, ptr %3, align 8
  store ptr %1, ptr %4, align 8
  %5 = load ptr, ptr %3, align 8
  %6 = load ptr, ptr %4, align 8
  %7 = load ptr, ptr %4, align 8
  %8 = call noundef i32 @_ZN15ExternalAddress16reloc_for_targetEPh(ptr noundef %7)
  call void @_ZN14AddressLiteralC2EPhN9relocInfo9relocTypeE(ptr noundef nonnull align 8 dereferenceable(56) %5, ptr noundef %6, i32 noundef %8)
  ret void
}

; Function Attrs: mustprogress nounwind uwtable
define linkonce_odr hidden noundef ptr @_ZN12StubRoutines3x8634vector_reverse_byte_perm_mask_longEv() #1 comdat align 2 {
  %1 = load ptr, ptr @_ZN12StubRoutines3x8635_vector_reverse_byte_perm_mask_longE, align 8
  ret ptr %1
}

; Function Attrs: mustprogress nounwind uwtable
define linkonce_odr hidden void @_ZN14MacroAssembler9evmovdquqE11XMMRegister9KRegisterS0_bi(ptr noundef nonnull align 8 dereferenceable(40) %0, i32 %1, i32 %2, i32 %3, i1 noundef zeroext %4, i32 noundef %5) #1 comdat align 2 {
  %7 = alloca %class.XMMRegister, align 4
  %8 = alloca %class.KRegister, align 4
  %9 = alloca %class.XMMRegister, align 4
  %10 = alloca ptr, align 8
  %11 = alloca i8, align 1
  %12 = alloca i32, align 4
  %13 = alloca %class.KRegister, align 4
  %14 = alloca %class.XMMRegister, align 4
  %15 = alloca %class.KRegister, align 4
  %16 = alloca %class.XMMRegister, align 4
  %17 = getelementptr inbounds %class.XMMRegister, ptr %7, i32 0, i32 0
  store i32 %1, ptr %17, align 4
  %18 = getelementptr inbounds %class.KRegister, ptr %8, i32 0, i32 0
  store i32 %2, ptr %18, align 4
  %19 = getelementptr inbounds %class.XMMRegister, ptr %9, i32 0, i32 0
  store i32 %3, ptr %19, align 4
  store ptr %0, ptr %10, align 8
  %20 = zext i1 %4 to i8
  store i8 %20, ptr %11, align 1
  store i32 %5, ptr %12, align 4
  %21 = load ptr, ptr %10, align 8
  %22 = call noundef ptr @_ZNK11XMMRegisterptEv(ptr noundef nonnull align 4 dereferenceable(4) %7)
  %23 = call noundef i32 @_ZNK11XMMRegister15XMMRegisterImpl8encodingEv(ptr noundef nonnull align 1 dereferenceable(1) %22)
  %24 = call noundef ptr @_ZNK11XMMRegisterptEv(ptr noundef nonnull align 4 dereferenceable(4) %9)
  %25 = call noundef i32 @_ZNK11XMMRegister15XMMRegisterImpl8encodingEv(ptr noundef nonnull align 1 dereferenceable(1) %24)
  %26 = icmp ne i32 %23, %25
  br i1 %26, label %32, label %27

27:                                               ; preds = %6
  call void @llvm.memcpy.p0.p0.i64(ptr align 4 %13, ptr align 4 @_ZL2k0, i64 4, i1 false)
  %28 = getelementptr inbounds %class.KRegister, ptr %13, i32 0, i32 0
  %29 = load i32, ptr %28, align 4
  %30 = call noundef i32 @_ZNK9KRegisterneES_(ptr noundef nonnull align 4 dereferenceable(4) %8, i32 %29)
  %31 = icmp ne i32 %30, 0
  br i1 %31, label %32, label %42

32:                                               ; preds = %27, %6
  call void @llvm.memcpy.p0.p0.i64(ptr align 4 %14, ptr align 4 %7, i64 4, i1 false)
  call void @llvm.memcpy.p0.p0.i64(ptr align 4 %15, ptr align 4 %8, i64 4, i1 false)
  call void @llvm.memcpy.p0.p0.i64(ptr align 4 %16, ptr align 4 %9, i64 4, i1 false)
  %33 = load i8, ptr %11, align 1
  %34 = trunc i8 %33 to i1
  %35 = load i32, ptr %12, align 4
  %36 = getelementptr inbounds %class.XMMRegister, ptr %14, i32 0, i32 0
  %37 = load i32, ptr %36, align 4
  %38 = getelementptr inbounds %class.KRegister, ptr %15, i32 0, i32 0
  %39 = load i32, ptr %38, align 4
  %40 = getelementptr inbounds %class.XMMRegister, ptr %16, i32 0, i32 0
  %41 = load i32, ptr %40, align 4
  call void @_ZN9Assembler9evmovdquqE11XMMRegister9KRegisterS0_bi(ptr noundef nonnull align 8 dereferenceable(40) %21, i32 %37, i32 %39, i32 %41, i1 noundef zeroext %34, i32 noundef %35)
  br label %42

42:                                               ; preds = %32, %27
  ret void
}

; Function Attrs: mustprogress nounwind uwtable
define linkonce_odr hidden noundef zeroext i1 @_ZN10VM_Version17supports_avx512vlEv() #1 comdat align 2 {
  %1 = load i64, ptr @_ZN19Abstract_VM_Version9_featuresE, align 8
  %2 = and i64 %1, 8589934592
  %3 = icmp ne i64 %2, 0
  ret i1 %3
}

; Function Attrs: mustprogress nounwind uwtable
define hidden void @_ZN17C2_MacroAssembler19vector_reverse_byteE9BasicType11XMMRegisterS1_i(ptr noundef nonnull align 8 dereferenceable(40) %0, i8 noundef zeroext %1, i32 %2, i32 %3, i32 noundef %4) #1 align 2 {
  %6 = alloca %class.XMMRegister, align 4
  %7 = alloca %class.XMMRegister, align 4
  %8 = alloca ptr, align 8
  %9 = alloca i8, align 1
  %10 = alloca i32, align 4
  %11 = alloca %class.XMMRegister, align 4
  %12 = alloca %class.KRegister, align 4
  %13 = alloca %class.XMMRegister, align 4
  %14 = alloca %class.XMMRegister, align 4
  %15 = alloca %class.XMMRegister, align 4
  %16 = alloca %class.XMMRegister, align 4
  %17 = alloca %class.AddressLiteral, align 8
  %18 = alloca %class.ExternalAddress, align 8
  %19 = alloca %class.Register, align 4
  %20 = alloca %class.XMMRegister, align 4
  %21 = alloca %class.AddressLiteral, align 8
  %22 = alloca %class.ExternalAddress, align 8
  %23 = alloca %class.Register, align 4
  %24 = alloca %class.XMMRegister, align 4
  %25 = alloca %class.AddressLiteral, align 8
  %26 = alloca %class.ExternalAddress, align 8
  %27 = alloca %class.Register, align 4
  %28 = alloca %class.XMMRegister, align 4
  %29 = alloca %class.XMMRegister, align 4
  %30 = alloca %class.XMMRegister, align 4
  %31 = getelementptr inbounds %class.XMMRegister, ptr %6, i32 0, i32 0
  store i32 %2, ptr %31, align 4
  %32 = getelementptr inbounds %class.XMMRegister, ptr %7, i32 0, i32 0
  store i32 %3, ptr %32, align 4
  store ptr %0, ptr %8, align 8
  store i8 %1, ptr %9, align 1
  store i32 %4, ptr %10, align 4
  %33 = load ptr, ptr %8, align 8
  %34 = load i8, ptr %9, align 1
  %35 = zext i8 %34 to i32
  %36 = icmp eq i32 %35, 8
  br i1 %36, label %37, label %56

37:                                               ; preds = %5
  %38 = call noundef zeroext i1 @_ZN10VM_Version17supports_avx512vlEv()
  br i1 %38, label %42, label %39

39:                                               ; preds = %37
  %40 = load i32, ptr %10, align 4
  %41 = icmp eq i32 %40, 2
  br i1 %41, label %42, label %50

42:                                               ; preds = %39, %37
  call void @llvm.memcpy.p0.p0.i64(ptr align 4 %11, ptr align 4 %6, i64 4, i1 false)
  call void @llvm.memcpy.p0.p0.i64(ptr align 4 %12, ptr align 4 @_ZL2k0, i64 4, i1 false)
  call void @llvm.memcpy.p0.p0.i64(ptr align 4 %13, ptr align 4 %7, i64 4, i1 false)
  %43 = load i32, ptr %10, align 4
  %44 = getelementptr inbounds %class.XMMRegister, ptr %11, i32 0, i32 0
  %45 = load i32, ptr %44, align 4
  %46 = getelementptr inbounds %class.KRegister, ptr %12, i32 0, i32 0
  %47 = load i32, ptr %46, align 4
  %48 = getelementptr inbounds %class.XMMRegister, ptr %13, i32 0, i32 0
  %49 = load i32, ptr %48, align 4
  call void @_ZN14MacroAssembler9evmovdquqE11XMMRegister9KRegisterS0_bi(ptr noundef nonnull align 8 dereferenceable(40) %33, i32 %45, i32 %47, i32 %49, i1 noundef zeroext true, i32 noundef %43)
  br label %55

50:                                               ; preds = %39
  call void @llvm.memcpy.p0.p0.i64(ptr align 4 %14, ptr align 4 %6, i64 4, i1 false)
  call void @llvm.memcpy.p0.p0.i64(ptr align 4 %15, ptr align 4 %7, i64 4, i1 false)
  %51 = getelementptr inbounds %class.XMMRegister, ptr %14, i32 0, i32 0
  %52 = load i32, ptr %51, align 4
  %53 = getelementptr inbounds %class.XMMRegister, ptr %15, i32 0, i32 0
  %54 = load i32, ptr %53, align 4
  call void @_ZN14MacroAssembler7vmovdquE11XMMRegisterS0_(ptr noundef nonnull align 8 dereferenceable(40) %33, i32 %52, i32 %54)
  br label %55

55:                                               ; preds = %50, %42
  br label %94

56:                                               ; preds = %5
  %57 = load i8, ptr %9, align 1
  %58 = zext i8 %57 to i32
  switch i32 %58, label %80 [
    i32 11, label %59
    i32 10, label %66
    i32 5, label %73
    i32 9, label %73
  ]

59:                                               ; preds = %56
  call void @llvm.memcpy.p0.p0.i64(ptr align 4 %16, ptr align 4 %6, i64 4, i1 false)
  %60 = call noundef ptr @_ZN12StubRoutines3x8634vector_reverse_byte_perm_mask_longEv()
  call void @_ZN15ExternalAddressC2EPh(ptr noundef nonnull align 8 dereferenceable(56) %18, ptr noundef %60)
  call void @_ZN14AddressLiteralC2EOS_(ptr noundef nonnull align 8 dereferenceable(56) %17, ptr noundef nonnull align 8 dereferenceable(56) %18)
  %61 = load i32, ptr %10, align 4
  call void @llvm.memcpy.p0.p0.i64(ptr align 4 %19, ptr align 4 @_ZL5noreg, i64 4, i1 false)
  %62 = getelementptr inbounds %class.XMMRegister, ptr %16, i32 0, i32 0
  %63 = load i32, ptr %62, align 4
  %64 = getelementptr inbounds %class.Register, ptr %19, i32 0, i32 0
  %65 = load i32, ptr %64, align 4
  call void @_ZN14MacroAssembler7vmovdquE11XMMRegister14AddressLiterali8Register(ptr noundef nonnull align 8 dereferenceable(40) %33, i32 %63, ptr noundef %17, i32 noundef %61, i32 %65)
  br label %86

66:                                               ; preds = %56
  call void @llvm.memcpy.p0.p0.i64(ptr align 4 %20, ptr align 4 %6, i64 4, i1 false)
  %67 = call noundef ptr @_ZN12StubRoutines3x8633vector_reverse_byte_perm_mask_intEv()
  call void @_ZN15ExternalAddressC2EPh(ptr noundef nonnull align 8 dereferenceable(56) %22, ptr noundef %67)
  call void @_ZN14AddressLiteralC2EOS_(ptr noundef nonnull align 8 dereferenceable(56) %21, ptr noundef nonnull align 8 dereferenceable(56) %22)
  %68 = load i32, ptr %10, align 4
  call void @llvm.memcpy.p0.p0.i64(ptr align 4 %23, ptr align 4 @_ZL5noreg, i64 4, i1 false)
  %69 = getelementptr inbounds %class.XMMRegister, ptr %20, i32 0, i32 0
  %70 = load i32, ptr %69, align 4
  %71 = getelementptr inbounds %class.Register, ptr %23, i32 0, i32 0
  %72 = load i32, ptr %71, align 4
  call void @_ZN14MacroAssembler7vmovdquE11XMMRegister14AddressLiterali8Register(ptr noundef nonnull align 8 dereferenceable(40) %33, i32 %70, ptr noundef %21, i32 noundef %68, i32 %72)
  br label %86

73:                                               ; preds = %56, %56
  call void @llvm.memcpy.p0.p0.i64(ptr align 4 %24, ptr align 4 %6, i64 4, i1 false)
  %74 = call noundef ptr @_ZN12StubRoutines3x8635vector_reverse_byte_perm_mask_shortEv()
  call void @_ZN15ExternalAddressC2EPh(ptr noundef nonnull align 8 dereferenceable(56) %26, ptr noundef %74)
  call void @_ZN14AddressLiteralC2EOS_(ptr noundef nonnull align 8 dereferenceable(56) %25, ptr noundef nonnull align 8 dereferenceable(56) %26)
  %75 = load i32, ptr %10, align 4
  call void @llvm.memcpy.p0.p0.i64(ptr align 4 %27, ptr align 4 @_ZL5noreg, i64 4, i1 false)
  %76 = getelementptr inbounds %class.XMMRegister, ptr %24, i32 0, i32 0
  %77 = load i32, ptr %76, align 4
  %78 = getelementptr inbounds %class.Register, ptr %27, i32 0, i32 0
  %79 = load i32, ptr %78, align 4
  call void @_ZN14MacroAssembler7vmovdquE11XMMRegister14AddressLiterali8Register(ptr noundef nonnull align 8 dereferenceable(40) %33, i32 %77, ptr noundef %25, i32 noundef %75, i32 %79)
  br label %86

80:                                               ; preds = %56
  br label %81

81:                                               ; preds = %80
  %82 = load ptr, ptr @g_assert_poison, align 8
  store i8 88, ptr %82, align 1
  %83 = load i8, ptr %9, align 1
  %84 = call noundef ptr @_Z9type2name9BasicType(i8 noundef zeroext %83)
  call void (i32, ptr, i32, ptr, ...) @_Z12report_fatal11VMErrorTypePKciS1_z(i32 noundef -536870912, ptr noundef @.str, i32 noundef 5789, ptr noundef @.str.4, ptr noundef %84) #8
  unreachable

85:                                               ; No predecessors!
  br label %86

86:                                               ; preds = %85, %73, %66, %59
  call void @llvm.memcpy.p0.p0.i64(ptr align 4 %28, ptr align 4 %6, i64 4, i1 false)
  call void @llvm.memcpy.p0.p0.i64(ptr align 4 %29, ptr align 4 %7, i64 4, i1 false)
  call void @llvm.memcpy.p0.p0.i64(ptr align 4 %30, ptr align 4 %6, i64 4, i1 false)
  %87 = load i32, ptr %10, align 4
  %88 = getelementptr inbounds %class.XMMRegister, ptr %28, i32 0, i32 0
  %89 = load i32, ptr %88, align 4
  %90 = getelementptr inbounds %class.XMMRegister, ptr %29, i32 0, i32 0
  %91 = load i32, ptr %90, align 4
  %92 = getelementptr inbounds %class.XMMRegister, ptr %30, i32 0, i32 0
  %93 = load i32, ptr %92, align 4
  call void @_ZN9Assembler7vpshufbE11XMMRegisterS0_S0_i(ptr noundef nonnull align 8 dereferenceable(40) %33, i32 %89, i32 %91, i32 %93, i32 noundef %87)
  br label %94

94:                                               ; preds = %86, %55
  ret void
}