; Function Attrs: mustprogress nounwind uwtable
define hidden void @_ZN17C2_MacroAssembler19vector_reverse_byteE9BasicType11XMMRegisterS1_i(ptr noundef nonnull align 8 dereferenceable(40) %0, i8 noundef zeroext %1, i32 %2, i32 %3, i32 noundef %4) local_unnamed_addr #0 align 2 {
  %6 = alloca %class.AddressLiteral, align 8
  %7 = alloca %class.ExternalAddress, align 8
  %8 = alloca %class.AddressLiteral, align 8
  %9 = alloca %class.ExternalAddress, align 8
  %10 = alloca %class.AddressLiteral, align 8
  %11 = alloca %class.ExternalAddress, align 8
  switch i8 %1, label %46 [
    i8 8, label %12
    i8 11, label %28
    i8 10, label %34
    i8 5, label %40
    i8 9, label %40
  ]

12:                                               ; preds = %5
  %13 = load i64, ptr @_ZN19Abstract_VM_Version9_featuresE, align 8
  %14 = and i64 %13, 8589934592
  %15 = icmp ne i64 %14, 0
  %16 = icmp eq i32 %4, 2
  %or.cond = or i1 %16, %15
  br i1 %or.cond, label %17, label %27

17:                                               ; preds = %12
  %18 = sext i32 %2 to i64
  %19 = getelementptr inbounds %"class.XMMRegister::XMMRegisterImpl", ptr getelementptr inbounds (i8, ptr @all_XMMRegisterImpls, i64 1), i64 %18
  %20 = ptrtoint ptr %19 to i64
  %21 = trunc i64 %20 to i32
  %22 = sext i32 %3 to i64
  %23 = getelementptr inbounds %"class.XMMRegister::XMMRegisterImpl", ptr getelementptr inbounds (i8, ptr @all_XMMRegisterImpls, i64 1), i64 %22
  %24 = ptrtoint ptr %23 to i64
  %25 = trunc i64 %24 to i32
  %.not.i = icmp eq i32 %21, %25
  br i1 %.not.i, label %_ZN14MacroAssembler9evmovdquqE11XMMRegister9KRegisterS0_bi.exit, label %26

26:                                               ; preds = %17
  tail call void @_ZN9Assembler9evmovdquqE11XMMRegister9KRegisterS0_bi(ptr noundef nonnull align 8 dereferenceable(40) %0, i32 %2, i32 0, i32 %3, i1 noundef zeroext true, i32 noundef %4) #11
  br label %_ZN14MacroAssembler9evmovdquqE11XMMRegister9KRegisterS0_bi.exit

27:                                               ; preds = %12
  tail call void @_ZN14MacroAssembler7vmovdquE11XMMRegisterS0_(ptr noundef nonnull align 8 dereferenceable(40) %0, i32 %2, i32 %3) #11
  br label %_ZN14MacroAssembler9evmovdquqE11XMMRegister9KRegisterS0_bi.exit

28:                                               ; preds = %5
  %.sink38.sroa.gep42 = getelementptr inbounds i8, ptr %6, i64 40
  %.sink37.sroa.gep40 = getelementptr inbounds i8, ptr %7, i64 40
  %29 = load ptr, ptr @_ZN12StubRoutines3x8635_vector_reverse_byte_perm_mask_longE, align 8
  %.not.i.i = icmp eq ptr %29, null
  %30 = select i1 %.not.i.i, i32 0, i32 7
  call void @_ZN14AddressLiteralC2EPhN9relocInfo9relocTypeE(ptr noundef nonnull align 8 dereferenceable(56) %7, ptr noundef %29, i32 noundef %30) #11
  %31 = load ptr, ptr %7, align 8
  %32 = getelementptr inbounds i8, ptr %31, i64 16
  %33 = load ptr, ptr %32, align 8
  call void %33(ptr noundef nonnull align 8 dereferenceable(20) %7, ptr noundef nonnull align 8 dereferenceable(40) %6) #11
  br label %49

34:                                               ; preds = %5
  %.sink38.sroa.gep41 = getelementptr inbounds i8, ptr %8, i64 40
  %.sink37.sroa.gep39 = getelementptr inbounds i8, ptr %9, i64 40
  %35 = load ptr, ptr @_ZN12StubRoutines3x8634_vector_reverse_byte_perm_mask_intE, align 8
  %.not.i.i33 = icmp eq ptr %35, null
  %36 = select i1 %.not.i.i33, i32 0, i32 7
  call void @_ZN14AddressLiteralC2EPhN9relocInfo9relocTypeE(ptr noundef nonnull align 8 dereferenceable(56) %9, ptr noundef %35, i32 noundef %36) #11
  %37 = load ptr, ptr %9, align 8
  %38 = getelementptr inbounds i8, ptr %37, i64 16
  %39 = load ptr, ptr %38, align 8
  call void %39(ptr noundef nonnull align 8 dereferenceable(20) %9, ptr noundef nonnull align 8 dereferenceable(40) %8) #11
  br label %49

40:                                               ; preds = %5, %5
  %.sink38.sroa.gep = getelementptr inbounds i8, ptr %10, i64 40
  %.sink37.sroa.gep = getelementptr inbounds i8, ptr %11, i64 40
  %41 = load ptr, ptr @_ZN12StubRoutines3x8636_vector_reverse_byte_perm_mask_shortE, align 8
  %.not.i.i34 = icmp eq ptr %41, null
  %42 = select i1 %.not.i.i34, i32 0, i32 7
  call void @_ZN14AddressLiteralC2EPhN9relocInfo9relocTypeE(ptr noundef nonnull align 8 dereferenceable(56) %11, ptr noundef %41, i32 noundef %42) #11
  %43 = load ptr, ptr %11, align 8
  %44 = getelementptr inbounds i8, ptr %43, i64 16
  %45 = load ptr, ptr %44, align 8
  call void %45(ptr noundef nonnull align 8 dereferenceable(20) %11, ptr noundef nonnull align 8 dereferenceable(40) %10) #11
  br label %49

46:                                               ; preds = %5
  %47 = load ptr, ptr @g_assert_poison, align 8
  store i8 88, ptr %47, align 1
  %48 = tail call noundef ptr @_Z9type2name9BasicType(i8 noundef zeroext %1) #11
  tail call void (i32, ptr, i32, ptr, ...) @_Z12report_fatal11VMErrorTypePKciS1_z(i32 noundef -536870912, ptr noundef nonnull @.str, i32 noundef 5789, ptr noundef nonnull @.str.4, ptr noundef %48) #12
  unreachable

49:                                               ; preds = %40, %34, %28
  %.sink38.sroa.phi = phi ptr [ %.sink38.sroa.gep, %40 ], [ %.sink38.sroa.gep41, %34 ], [ %.sink38.sroa.gep42, %28 ]
  %.sink38 = phi ptr [ %10, %40 ], [ %8, %34 ], [ %6, %28 ]
  %.sink37.sroa.phi = phi ptr [ %.sink37.sroa.gep, %40 ], [ %.sink37.sroa.gep39, %34 ], [ %.sink37.sroa.gep40, %28 ]
  call void @llvm.memcpy.p0.p0.i64(ptr noundef nonnull align 8 dereferenceable(16) %.sink38.sroa.phi, ptr noundef nonnull align 8 dereferenceable(16) %.sink37.sroa.phi, i64 16, i1 false)
  call void @_ZN14MacroAssembler7vmovdquE11XMMRegister14AddressLiterali8Register(ptr noundef nonnull align 8 dereferenceable(40) %0, i32 %2, ptr noundef nonnull %.sink38, i32 noundef %4, i32 -1) #11
  call void @_ZN9Assembler7vpshufbE11XMMRegisterS0_S0_i(ptr noundef nonnull align 8 dereferenceable(40) %0, i32 %2, i32 %3, i32 %2, i32 noundef %4) #11
  br label %_ZN14MacroAssembler9evmovdquqE11XMMRegister9KRegisterS0_bi.exit

_ZN14MacroAssembler9evmovdquqE11XMMRegister9KRegisterS0_bi.exit: ; preds = %26, %17, %27, %49
  ret void
}